target datalayout = "e-m:e-p270:32:32-p271:32:32-p272:64:64-i64:64-i128:128-f80:128-n8:16:32:64-S128"
target triple = "x86_64-pc-linux-gnu"

; Function Attrs: inlinehint mustprogress nounwind uwtable
define internal noundef signext i8 @_ZL9U_SUCCESS10UErrorCode(i32 noundef %0) #4 {
  %2 = alloca i32, align 4
  store i32 %0, ptr %2, align 4, !tbaa !24
  %3 = load i32, ptr %2, align 4, !tbaa !24
  %4 = icmp sle i32 %3, 0
  %5 = zext i1 %4 to i8
  ret i8 %5
}

; Function Attrs: mustprogress uwtable
define signext i8 @ucbuf_autodetect_fs(ptr noundef %0, ptr noundef %1, ptr noundef %2, ptr noundef %3, ptr noundef %4) #0 {
  %6 = alloca i8, align 1
  %7 = alloca ptr, align 8
  %8 = alloca ptr, align 8
  %9 = alloca ptr, align 8
  %10 = alloca ptr, align 8
  %11 = alloca ptr, align 8
  %12 = alloca [8 x i8], align 1
  %13 = alloca i32, align 4
  %14 = alloca [1 x i16], align 2
  %15 = alloca ptr, align 8
  %16 = alloca ptr, align 8
  %17 = alloca i32, align 4
  store ptr %0, ptr %7, align 8, !tbaa !3
  store ptr %1, ptr %8, align 8, !tbaa !8
  store ptr %2, ptr %9, align 8, !tbaa !11
  store ptr %3, ptr %10, align 8, !tbaa !13
  store ptr %4, ptr %11, align 8, !tbaa !15
  call void @llvm.lifetime.start.p0(i64 8, ptr %12) #10
  call void @llvm.lifetime.start.p0(i64 4, ptr %13) #10
  call void @llvm.lifetime.start.p0(i64 2, ptr %14) #10
  call void @llvm.memset.p0.i64(ptr align 2 %14, i8 0, i64 2, i1 false)
  call void @llvm.lifetime.start.p0(i64 8, ptr %15) #10
  call void @llvm.lifetime.start.p0(i64 8, ptr %16) #10
  %18 = load ptr, ptr %7, align 8, !tbaa !3
  %19 = getelementptr inbounds [8 x i8], ptr %12, i64 0, i64 0
  %20 = call i32 @T_FileStream_read(ptr noundef %18, ptr noundef %19, i32 noundef 8)
  store i32 %20, ptr %13, align 4, !tbaa !16
  %21 = getelementptr inbounds [8 x i8], ptr %12, i64 0, i64 0
  %22 = load i32, ptr %13, align 4, !tbaa !16
  %23 = load ptr, ptr %10, align 8, !tbaa !13
  %24 = load ptr, ptr %11, align 8, !tbaa !15
  %25 = call ptr @ucnv_detectUnicodeSignature_77(ptr noundef %21, i32 noundef %22, ptr noundef %23, ptr noundef %24)
  %26 = load ptr, ptr %8, align 8, !tbaa !8
  store ptr %25, ptr %26, align 8, !tbaa !18
  %27 = load ptr, ptr %7, align 8, !tbaa !3
  call void @T_FileStream_rewind(ptr noundef %27)
  %28 = load ptr, ptr %10, align 8, !tbaa !13
  %29 = load i32, ptr %28, align 4, !tbaa !16
  %30 = icmp sgt i32 %29, 0
  br i1 %30, label %31, label %37

31:                                               ; preds = %5
  %32 = load ptr, ptr %7, align 8, !tbaa !3
  %33 = getelementptr inbounds [8 x i8], ptr %12, i64 0, i64 0
  %34 = load ptr, ptr %10, align 8, !tbaa !13
  %35 = load i32, ptr %34, align 4, !tbaa !16
  %36 = call i32 @T_FileStream_read(ptr noundef %32, ptr noundef %33, i32 noundef %35)
  br label %37

37:                                               ; preds = %31, %5
  %38 = load ptr, ptr %8, align 8, !tbaa !8
  %39 = load ptr, ptr %38, align 8, !tbaa !18
  %40 = icmp eq ptr %39, null
  br i1 %40, label %41, label %43

41:                                               ; preds = %37
  %42 = load ptr, ptr %9, align 8, !tbaa !11
  store ptr null, ptr %42, align 8, !tbaa !20
  store i8 0, ptr %6, align 1
  store i32 1, ptr %17, align 4
  br label %91

43:                                               ; preds = %37
  %44 = load ptr, ptr %8, align 8, !tbaa !8
  %45 = load ptr, ptr %44, align 8, !tbaa !18
  %46 = load ptr, ptr %11, align 8, !tbaa !15
  %47 = call ptr @ucnv_open_77(ptr noundef %45, ptr noundef %46)
  %48 = load ptr, ptr %9, align 8, !tbaa !11
  store ptr %47, ptr %48, align 8, !tbaa !20
  %49 = getelementptr inbounds [1 x i16], ptr %14, i64 0, i64 0
  store ptr %49, ptr %15, align 8, !tbaa !22
  %50 = getelementptr inbounds [8 x i8], ptr %12, i64 0, i64 0
  store ptr %50, ptr %16, align 8, !tbaa !18
  %51 = load ptr, ptr %9, align 8, !tbaa !11
  %52 = load ptr, ptr %51, align 8, !tbaa !20
  %53 = getelementptr inbounds [1 x i16], ptr %14, i64 0, i64 0
  %54 = getelementptr inbounds i16, ptr %53, i64 1
  %55 = getelementptr inbounds [8 x i8], ptr %12, i64 0, i64 0
  %56 = load ptr, ptr %10, align 8, !tbaa !13
  %57 = load i32, ptr %56, align 4, !tbaa !16
  %58 = sext i32 %57 to i64
  %59 = getelementptr inbounds i8, ptr %55, i64 %58
  %60 = load ptr, ptr %11, align 8, !tbaa !15
  call void @ucnv_toUnicode_77(ptr noundef %52, ptr noundef %15, ptr noundef %54, ptr noundef %16, ptr noundef %59, ptr noundef null, i8 noundef signext 0, ptr noundef %60)
  %61 = load ptr, ptr %16, align 8, !tbaa !18
  %62 = getelementptr inbounds [8 x i8], ptr %12, i64 0, i64 0
  %63 = ptrtoint ptr %61 to i64
  %64 = ptrtoint ptr %62 to i64
  %65 = sub i64 %63, %64
  %66 = trunc i64 %65 to i32
  %67 = load ptr, ptr %10, align 8, !tbaa !13
  store i32 %66, ptr %67, align 4, !tbaa !16
  %68 = load ptr, ptr %11, align 8, !tbaa !15
  %69 = load i32, ptr %68, align 4, !tbaa !24
  %70 = icmp eq i32 %69, 15
  br i1 %70, label %71, label %73

71:                                               ; preds = %43
  %72 = load ptr, ptr %11, align 8, !tbaa !15
  store i32 0, ptr %72, align 4, !tbaa !24
  br label %73

73:                                               ; preds = %71, %43
  %74 = load ptr, ptr %11, align 8, !tbaa !15
  %75 = load i32, ptr %74, align 4, !tbaa !24
  %76 = call noundef signext i8 @_ZL9U_SUCCESS10UErrorCode(i32 noundef %75)
  %77 = icmp ne i8 %76, 0
  br i1 %77, label %78, label %90

78:                                               ; preds = %73
  %79 = load ptr, ptr %15, align 8, !tbaa !22
  %80 = getelementptr inbounds [1 x i16], ptr %14, i64 0, i64 0
  %81 = getelementptr inbounds i16, ptr %80, i64 1
  %82 = icmp ne ptr %79, %81
  br i1 %82, label %88, label %83

83:                                               ; preds = %78
  %84 = getelementptr inbounds [1 x i16], ptr %14, i64 0, i64 0
  %85 = load i16, ptr %84, align 2, !tbaa !26
  %86 = zext i16 %85 to i32
  %87 = icmp ne i32 %86, 65279
  br i1 %87, label %88, label %90

88:                                               ; preds = %83, %78
  %89 = load ptr, ptr %11, align 8, !tbaa !15
  store i32 5, ptr %89, align 4, !tbaa !24
  br label %90

90:                                               ; preds = %88, %83, %73
  store i8 1, ptr %6, align 1
  store i32 1, ptr %17, align 4
  br label %91

91:                                               ; preds = %90, %41
  call void @llvm.lifetime.end.p0(i64 8, ptr %16) #10
  call void @llvm.lifetime.end.p0(i64 8, ptr %15) #10
  call void @llvm.lifetime.end.p0(i64 2, ptr %14) #10
  call void @llvm.lifetime.end.p0(i64 4, ptr %13) #10
  call void @llvm.lifetime.end.p0(i64 8, ptr %12) #10
  %92 = load i8, ptr %6, align 1
  ret i8 %92
}