; Function Attrs: mustprogress uwtable
define signext range(i8 0, 2) i8 @ucbuf_autodetect_fs(ptr noundef %0, ptr noundef captures(none) initializes((0, 8)) %1, ptr noundef writeonly captures(none) initializes((0, 8)) %2, ptr noundef %3, ptr noundef %4) local_unnamed_addr #0 {
  %6 = alloca [8 x i8], align 1
  %7 = alloca [1 x i16], align 2
  %8 = alloca ptr, align 8
  %9 = alloca ptr, align 8
  call void @llvm.lifetime.start.p0(i64 8, ptr nonnull %6) #15
  call void @llvm.lifetime.start.p0(i64 2, ptr nonnull %7) #15
  store i16 0, ptr %7, align 2
  call void @llvm.lifetime.start.p0(i64 8, ptr nonnull %8) #15
  call void @llvm.lifetime.start.p0(i64 8, ptr nonnull %9) #15
  %10 = call i32 @T_FileStream_read(ptr noundef %0, ptr noundef nonnull %6, i32 noundef 8)
  %11 = call ptr @ucnv_detectUnicodeSignature_77(ptr noundef nonnull %6, i32 noundef %10, ptr noundef %3, ptr noundef %4)
  store ptr %11, ptr %1, align 8, !tbaa !3
  call void @T_FileStream_rewind(ptr noundef %0)
  %12 = load i32, ptr %3, align 4, !tbaa !8
  %13 = icmp sgt i32 %12, 0
  br i1 %13, label %14, label %16

14:                                               ; preds = %5
  %15 = call i32 @T_FileStream_read(ptr noundef %0, ptr noundef nonnull %6, i32 noundef %12)
  br label %16

16:                                               ; preds = %14, %5
  %17 = load ptr, ptr %1, align 8, !tbaa !3
  %18 = icmp eq ptr %17, null
  br i1 %18, label %19, label %20

19:                                               ; preds = %16
  store ptr null, ptr %2, align 8, !tbaa !10
  br label %41

20:                                               ; preds = %16
  %21 = call ptr @ucnv_open_77(ptr noundef nonnull %17, ptr noundef %4)
  store ptr %21, ptr %2, align 8, !tbaa !10
  store ptr %7, ptr %8, align 8, !tbaa !12
  store ptr %6, ptr %9, align 8, !tbaa !3
  %22 = getelementptr inbounds nuw i8, ptr %7, i64 2
  %23 = load i32, ptr %3, align 4, !tbaa !8
  %24 = sext i32 %23 to i64
  %25 = getelementptr inbounds i8, ptr %6, i64 %24
  call void @ucnv_toUnicode_77(ptr noundef %21, ptr noundef nonnull %8, ptr noundef nonnull %22, ptr noundef nonnull %9, ptr noundef nonnull %25, ptr noundef null, i8 noundef signext 0, ptr noundef %4)
  %26 = load ptr, ptr %9, align 8, !tbaa !3
  %27 = ptrtoint ptr %26 to i64
  %28 = ptrtoint ptr %6 to i64
  %29 = sub i64 %27, %28
  %30 = trunc i64 %29 to i32
  store i32 %30, ptr %3, align 4, !tbaa !8
  %31 = load i32, ptr %4, align 4, !tbaa !14
  %32 = icmp eq i32 %31, 15
  br i1 %32, label %.thread, label %33

.thread:                                          ; preds = %20
  store i32 0, ptr %4, align 4, !tbaa !14
  br label %35

33:                                               ; preds = %20
  %34 = icmp sgt i32 %31, 0
  br i1 %34, label %41, label %35

35:                                               ; preds = %.thread, %33
  %36 = load ptr, ptr %8, align 8, !tbaa !12
  %37 = icmp ne ptr %36, %22
  %38 = load i16, ptr %7, align 2
  %39 = icmp ne i16 %38, -257
  %or.cond = select i1 %37, i1 true, i1 %39
  br i1 %or.cond, label %40, label %41

40:                                               ; preds = %35
  store i32 5, ptr %4, align 4, !tbaa !14
  br label %41

41:                                               ; preds = %33, %40, %35, %19
  %.0 = phi i8 [ 0, %19 ], [ 1, %35 ], [ 1, %40 ], [ 1, %33 ]
  call void @llvm.lifetime.end.p0(i64 8, ptr nonnull %9) #15
  call void @llvm.lifetime.end.p0(i64 8, ptr nonnull %8) #15
  call void @llvm.lifetime.end.p0(i64 2, ptr nonnull %7) #15
  call void @llvm.lifetime.end.p0(i64 8, ptr nonnull %6) #15
  ret i8 %.0
}